target datalayout = "e-m:e-p270:32:32-p271:32:32-p272:64:64-i64:64-i128:128-f80:128-n8:16:32:64-S128"
target triple = "x86_64-pc-linux-gnu"

; Function Attrs: mustprogress nounwind uwtable
define linkonce_odr dso_local noundef float @_ZSt5expm1f(float noundef %0) #5 comdat {
  %2 = alloca float, align 4
  store float %0, ptr %2, align 4, !tbaa !46
  %3 = load float, ptr %2, align 4, !tbaa !46
  %4 = call float @expm1f(float noundef %3) #3, !tbaa !13
  ret float %4
}

; Function Attrs: mustprogress nounwind uwtable
define linkonce_odr dso_local noundef float @_ZSt5log1pf(float noundef %0) #5 comdat {
  %2 = alloca float, align 4
  store float %0, ptr %2, align 4, !tbaa !46
  %3 = load float, ptr %2, align 4, !tbaa !46
  %4 = call float @log1pf(float noundef %3) #3, !tbaa !13
  ret float %4
}

; Function Attrs: mustprogress nounwind uwtable
define linkonce_odr dso_local noundef float @_ZNSt14numeric_limitsIfE3minEv() #5 comdat align 2 {
  ret float 0x3810000000000000
}

; Function Attrs: inlinehint mustprogress nounwind uwtable
define linkonce_odr dso_local noundef nonnull align 4 dereferenceable(4) ptr @_ZSt3maxIfERKT_S2_S2_(ptr noundef nonnull align 4 dereferenceable(4) %0, ptr noundef nonnull align 4 dereferenceable(4) %1) #10 comdat {
  %3 = alloca ptr, align 8
  %4 = alloca ptr, align 8
  %5 = alloca ptr, align 8
  store ptr %0, ptr %4, align 8, !tbaa !48
  store ptr %1, ptr %5, align 8, !tbaa !48
  %6 = load ptr, ptr %4, align 8, !tbaa !48
  %7 = load float, ptr %6, align 4, !tbaa !46
  %8 = load ptr, ptr %5, align 8, !tbaa !48
  %9 = load float, ptr %8, align 4, !tbaa !46
  %10 = fcmp olt float %7, %9
  br i1 %10, label %11, label %13

11:                                               ; preds = %2
  %12 = load ptr, ptr %5, align 8, !tbaa !48
  store ptr %12, ptr %3, align 8
  br label %15

13:                                               ; preds = %2
  %14 = load ptr, ptr %4, align 8, !tbaa !48
  store ptr %14, ptr %3, align 8
  br label %15

15:                                               ; preds = %13, %11
  %16 = load ptr, ptr %3, align 8
  ret ptr %16
}

; Function Attrs: inlinehint mustprogress nounwind uwtable
define linkonce_odr dso_local noundef nonnull align 4 dereferenceable(4) ptr @_ZSt3minIfERKT_S2_S2_(ptr noundef nonnull align 4 dereferenceable(4) %0, ptr noundef nonnull align 4 dereferenceable(4) %1) #10 comdat {
  %3 = alloca ptr, align 8
  %4 = alloca ptr, align 8
  %5 = alloca ptr, align 8
  store ptr %0, ptr %4, align 8, !tbaa !48
  store ptr %1, ptr %5, align 8, !tbaa !48
  %6 = load ptr, ptr %5, align 8, !tbaa !48
  %7 = load float, ptr %6, align 4, !tbaa !46
  %8 = load ptr, ptr %4, align 8, !tbaa !48
  %9 = load float, ptr %8, align 4, !tbaa !46
  %10 = fcmp olt float %7, %9
  br i1 %10, label %11, label %13

11:                                               ; preds = %2
  %12 = load ptr, ptr %5, align 8, !tbaa !48
  store ptr %12, ptr %3, align 8
  br label %15

13:                                               ; preds = %2
  %14 = load ptr, ptr %4, align 8, !tbaa !48
  store ptr %14, ptr %3, align 8
  br label %15

15:                                               ; preds = %13, %11
  %16 = load ptr, ptr %3, align 8
  ret ptr %16
}

; Function Attrs: mustprogress uwtable
define dso_local void @_Z17splitVolumeSamplefffffRfS_S_S_(float noundef %0, float noundef %1, float noundef %2, float noundef %3, float noundef %4, ptr noundef nonnull align 4 dereferenceable(4) %5, ptr noundef nonnull align 4 dereferenceable(4) %6, ptr noundef nonnull align 4 dereferenceable(4) %7, ptr noundef nonnull align 4 dereferenceable(4) %8) #6 {
  %10 = alloca float, align 4
  %11 = alloca float, align 4
  %12 = alloca float, align 4
  %13 = alloca float, align 4
  %14 = alloca float, align 4
  %15 = alloca ptr, align 8
  %16 = alloca ptr, align 8
  %17 = alloca ptr, align 8
  %18 = alloca ptr, align 8
  %19 = alloca float, align 4
  %20 = alloca float, align 4
  %21 = alloca float, align 4
  %22 = alloca float, align 4
  store float %0, ptr %10, align 4, !tbaa !46
  store float %1, ptr %11, align 4, !tbaa !46
  store float %2, ptr %12, align 4, !tbaa !46
  store float %3, ptr %13, align 4, !tbaa !46
  store float %4, ptr %14, align 4, !tbaa !46
  store ptr %5, ptr %15, align 8, !tbaa !48
  store ptr %6, ptr %16, align 8, !tbaa !48
  store ptr %7, ptr %17, align 8, !tbaa !48
  store ptr %8, ptr %18, align 8, !tbaa !48
  call void @llvm.lifetime.start.p0(i64 4, ptr %19) #3
  store float 0.000000e+00, ptr %19, align 4, !tbaa !46
  call void @llvm.lifetime.start.p0(i64 4, ptr %20) #3
  store float 1.000000e+00, ptr %20, align 4, !tbaa !46
  %23 = call noundef nonnull align 4 dereferenceable(4) ptr @_ZSt3minIfERKT_S2_S2_(ptr noundef nonnull align 4 dereferenceable(4) %10, ptr noundef nonnull align 4 dereferenceable(4) %20)
  %24 = call noundef nonnull align 4 dereferenceable(4) ptr @_ZSt3maxIfERKT_S2_S2_(ptr noundef nonnull align 4 dereferenceable(4) %19, ptr noundef nonnull align 4 dereferenceable(4) %23)
  %25 = load float, ptr %24, align 4, !tbaa !46
  store float %25, ptr %10, align 4, !tbaa !46
  call void @llvm.lifetime.end.p0(i64 4, ptr %20) #3
  call void @llvm.lifetime.end.p0(i64 4, ptr %19) #3
  %26 = load float, ptr %10, align 4, !tbaa !46
  %27 = fcmp oeq float %26, 1.000000e+00
  br i1 %27, label %28, label %34

28:                                               ; preds = %9
  %29 = load ptr, ptr %17, align 8, !tbaa !48
  store float 1.000000e+00, ptr %29, align 4, !tbaa !46
  %30 = load ptr, ptr %15, align 8, !tbaa !48
  store float 1.000000e+00, ptr %30, align 4, !tbaa !46
  %31 = load float, ptr %11, align 4, !tbaa !46
  %32 = load ptr, ptr %18, align 8, !tbaa !48
  store float %31, ptr %32, align 4, !tbaa !46
  %33 = load ptr, ptr %16, align 8, !tbaa !48
  store float %31, ptr %33, align 4, !tbaa !46
  br label %101

34:                                               ; preds = %9
  call void @llvm.lifetime.start.p0(i64 4, ptr %21) #3
  %35 = load float, ptr %14, align 4, !tbaa !46
  %36 = load float, ptr %12, align 4, !tbaa !46
  %37 = fsub float %35, %36
  %38 = load float, ptr %13, align 4, !tbaa !46
  %39 = load float, ptr %12, align 4, !tbaa !46
  %40 = fsub float %38, %39
  %41 = fdiv float %37, %40
  store float %41, ptr %21, align 4, !tbaa !46
  call void @llvm.lifetime.start.p0(i64 4, ptr %22) #3
  %42 = load float, ptr %13, align 4, !tbaa !46
  %43 = load float, ptr %14, align 4, !tbaa !46
  %44 = fsub float %42, %43
  %45 = load float, ptr %13, align 4, !tbaa !46
  %46 = load float, ptr %12, align 4, !tbaa !46
  %47 = fsub float %45, %46
  %48 = fdiv float %44, %47
  store float %48, ptr %22, align 4, !tbaa !46
  %49 = load float, ptr %10, align 4, !tbaa !46
  %50 = call noundef float @_ZNSt14numeric_limitsIfE3minEv() #3
  %51 = fcmp ogt float %49, %50
  br i1 %51, label %52, label %83

52:                                               ; preds = %34
  %53 = load float, ptr %21, align 4, !tbaa !46
  %54 = load float, ptr %10, align 4, !tbaa !46
  %55 = fneg float %54
  %56 = call noundef float @_ZSt5log1pf(float noundef %55)
  %57 = fmul float %53, %56
  %58 = call noundef float @_ZSt5expm1f(float noundef %57)
  %59 = fneg float %58
  %60 = load ptr, ptr %15, align 8, !tbaa !48
  store float %59, ptr %60, align 4, !tbaa !46
  %61 = load ptr, ptr %15, align 8, !tbaa !48
  %62 = load float, ptr %61, align 4, !tbaa !46
  %63 = load float, ptr %10, align 4, !tbaa !46
  %64 = fdiv float %62, %63
  %65 = load float, ptr %11, align 4, !tbaa !46
  %66 = fmul float %64, %65
  %67 = load ptr, ptr %16, align 8, !tbaa !48
  store float %66, ptr %67, align 4, !tbaa !46
  %68 = load float, ptr %22, align 4, !tbaa !46
  %69 = load float, ptr %10, align 4, !tbaa !46
  %70 = fneg float %69
  %71 = call noundef float @_ZSt5log1pf(float noundef %70)
  %72 = fmul float %68, %71
  %73 = call noundef float @_ZSt5expm1f(float noundef %72)
  %74 = fneg float %73
  %75 = load ptr, ptr %17, align 8, !tbaa !48
  store float %74, ptr %75, align 4, !tbaa !46
  %76 = load ptr, ptr %17, align 8, !tbaa !48
  %77 = load float, ptr %76, align 4, !tbaa !46
  %78 = load float, ptr %10, align 4, !tbaa !46
  %79 = fdiv float %77, %78
  %80 = load float, ptr %11, align 4, !tbaa !46
  %81 = fmul float %79, %80
  %82 = load ptr, ptr %18, align 8, !tbaa !48
  store float %81, ptr %82, align 4, !tbaa !46
  br label %100

83:                                               ; preds = %34
  %84 = load float, ptr %10, align 4, !tbaa !46
  %85 = load float, ptr %21, align 4, !tbaa !46
  %86 = fmul float %84, %85
  %87 = load ptr, ptr %15, align 8, !tbaa !48
  store float %86, ptr %87, align 4, !tbaa !46
  %88 = load float, ptr %11, align 4, !tbaa !46
  %89 = load float, ptr %21, align 4, !tbaa !46
  %90 = fmul float %88, %89
  %91 = load ptr, ptr %16, align 8, !tbaa !48
  store float %90, ptr %91, align 4, !tbaa !46
  %92 = load float, ptr %10, align 4, !tbaa !46
  %93 = load float, ptr %22, align 4, !tbaa !46
  %94 = fmul float %92, %93
  %95 = load ptr, ptr %17, align 8, !tbaa !48
  store float %94, ptr %95, align 4, !tbaa !46
  %96 = load float, ptr %11, align 4, !tbaa !46
  %97 = load float, ptr %22, align 4, !tbaa !46
  %98 = fmul float %96, %97
  %99 = load ptr, ptr %18, align 8, !tbaa !48
  store float %98, ptr %99, align 4, !tbaa !46
  br label %100

100:                                              ; preds = %83, %52
  call void @llvm.lifetime.end.p0(i64 4, ptr %22) #3
  call void @llvm.lifetime.end.p0(i64 4, ptr %21) #3
  br label %101

101:                                              ; preds = %100, %28
  ret void
}