; Function Attrs: mustprogress nofree nounwind willreturn memory(write) uwtable
define dso_local void @_Z17splitVolumeSamplefffffRfS_S_S_(float noundef %0, float noundef %1, float noundef %2, float noundef %3, float noundef %4, ptr noundef nonnull writeonly align 4 captures(none) dereferenceable(4) initializes((0, 4)) %5, ptr noundef nonnull writeonly align 4 captures(none) dereferenceable(4) initializes((0, 4)) %6, ptr noundef nonnull writeonly align 4 captures(none) dereferenceable(4) initializes((0, 4)) %7, ptr noundef nonnull writeonly align 4 captures(none) dereferenceable(4) initializes((0, 4)) %8) local_unnamed_addr #17 {
  %10 = fcmp ogt float %0, 1.000000e+00
  %.sroa.speculated40 = select i1 %10, float 1.000000e+00, float %0
  %11 = fcmp ogt float %.sroa.speculated40, 0.000000e+00
  %.sroa.speculated = select i1 %11, float %.sroa.speculated40, float 0.000000e+00
  %12 = fcmp oeq float %.sroa.speculated, 1.000000e+00
  br i1 %12, label %13, label %14

13:                                               ; preds = %9
  store float 1.000000e+00, ptr %7, align 4, !tbaa !57
  store float 1.000000e+00, ptr %5, align 4, !tbaa !57
  store float %1, ptr %8, align 4, !tbaa !57
  store float %1, ptr %6, align 4, !tbaa !57
  br label %37

14:                                               ; preds = %9
  %15 = fsub float %4, %2
  %16 = fsub float %3, %2
  %17 = fdiv float %15, %16
  %18 = fsub float %3, %4
  %19 = fdiv float %18, %16
  %20 = fcmp ogt float %.sroa.speculated, 0x3810000000000000
  br i1 %20, label %21, label %33

21:                                               ; preds = %14
  %22 = fneg float %.sroa.speculated
  %23 = tail call noundef float @log1pf(float noundef %22) #36, !tbaa !59
  %24 = fmul float %17, %23
  %25 = tail call noundef float @expm1f(float noundef %24) #36, !tbaa !59
  %26 = fneg float %25
  %27 = fdiv float %26, %.sroa.speculated
  %28 = tail call noundef float @log1pf(float noundef %22) #36, !tbaa !59
  %29 = fmul float %19, %28
  %30 = tail call noundef float @expm1f(float noundef %29) #36, !tbaa !59
  %31 = fneg float %30
  %32 = fdiv float %31, %.sroa.speculated
  br label %36

33:                                               ; preds = %14
  %34 = fmul float %.sroa.speculated, %17
  %35 = fmul float %.sroa.speculated, %19
  br label %36

36:                                               ; preds = %33, %21
  %.sink43 = phi float [ %26, %21 ], [ %34, %33 ]
  %.pn44 = phi float [ %27, %21 ], [ %17, %33 ]
  %.sink = phi float [ %31, %21 ], [ %35, %33 ]
  %.pn = phi float [ %32, %21 ], [ %19, %33 ]
  %.sink42 = fmul float %1, %.pn44
  store float %.sink43, ptr %5, align 4, !tbaa !57
  store float %.sink42, ptr %6, align 4, !tbaa !57
  store float %.sink, ptr %7, align 4, !tbaa !57
  %storemerge = fmul float %1, %.pn
  store float %storemerge, ptr %8, align 4, !tbaa !57
  br label %37

37:                                               ; preds = %36, %13
  ret void
}